; Function Attrs: mustprogress nounwind uwtable
define internal fastcc void @_ZSt8_DestroyIPN5Yosys7hashlib4dictINS0_5RTLIL6SigBitEN12_GLOBAL__N_114MuxcoverWorker8newmux_tENS1_8hash_opsIS4_EEE7entry_tEEvT_SD_(ptr noundef readonly %0, ptr noundef readnone %1) unnamed_addr #3 personality ptr @__gxx_personality_v0 {
  %.not4.i = icmp eq ptr %0, %1
  br i1 %.not4.i, label %_ZNSt12_Destroy_auxILb0EE9__destroyIPN5Yosys7hashlib4dictINS2_5RTLIL6SigBitEN12_GLOBAL__N_114MuxcoverWorker8newmux_tENS3_8hash_opsIS6_EEE7entry_tEEEvT_SF_.exit, label %.lr.ph.i

.lr.ph.i:                                         ; preds = %2, %_ZSt8_DestroyIN5Yosys7hashlib4dictINS0_5RTLIL6SigBitEN12_GLOBAL__N_114MuxcoverWorker8newmux_tENS1_8hash_opsIS4_EEE7entry_tEEvPT_.exit.i
  %.05.i = phi ptr [ %9, %_ZSt8_DestroyIN5Yosys7hashlib4dictINS0_5RTLIL6SigBitEN12_GLOBAL__N_114MuxcoverWorker8newmux_tENS1_8hash_opsIS4_EEE7entry_tEEvPT_.exit.i ], [ %0, %2 ]
  %3 = getelementptr inbounds i8, ptr %.05.i, i64 48
  %4 = load ptr, ptr %3, align 8
  %.not.i.i.i.i.i.i.i.i = icmp eq ptr %4, null
  br i1 %.not.i.i.i.i.i.i.i.i, label %_ZNSt6vectorIN5Yosys5RTLIL6SigBitESaIS2_EED2Ev.exit.i.i.i.i.i, label %5

5:                                                ; preds = %.lr.ph.i
  tail call void @_ZdlPv(ptr noundef nonnull %4) #20
  br label %_ZNSt6vectorIN5Yosys5RTLIL6SigBitESaIS2_EED2Ev.exit.i.i.i.i.i

_ZNSt6vectorIN5Yosys5RTLIL6SigBitESaIS2_EED2Ev.exit.i.i.i.i.i: ; preds = %5, %.lr.ph.i
  %6 = getelementptr inbounds i8, ptr %.05.i, i64 24
  %7 = load ptr, ptr %6, align 8
  %.not.i.i.i1.i.i.i.i.i = icmp eq ptr %7, null
  br i1 %.not.i.i.i1.i.i.i.i.i, label %_ZSt8_DestroyIN5Yosys7hashlib4dictINS0_5RTLIL6SigBitEN12_GLOBAL__N_114MuxcoverWorker8newmux_tENS1_8hash_opsIS4_EEE7entry_tEEvPT_.exit.i, label %8

8:                                                ; preds = %_ZNSt6vectorIN5Yosys5RTLIL6SigBitESaIS2_EED2Ev.exit.i.i.i.i.i
  tail call void @_ZdlPv(ptr noundef nonnull %7) #20
  br label %_ZSt8_DestroyIN5Yosys7hashlib4dictINS0_5RTLIL6SigBitEN12_GLOBAL__N_114MuxcoverWorker8newmux_tENS1_8hash_opsIS4_EEE7entry_tEEvPT_.exit.i

_ZSt8_DestroyIN5Yosys7hashlib4dictINS0_5RTLIL6SigBitEN12_GLOBAL__N_114MuxcoverWorker8newmux_tENS1_8hash_opsIS4_EEE7entry_tEEvPT_.exit.i: ; preds = %8, %_ZNSt6vectorIN5Yosys5RTLIL6SigBitESaIS2_EED2Ev.exit.i.i.i.i.i
  %9 = getelementptr inbounds i8, ptr %.05.i, i64 80
  %.not.i = icmp eq ptr %9, %1
  br i1 %.not.i, label %_ZNSt12_Destroy_auxILb0EE9__destroyIPN5Yosys7hashlib4dictINS2_5RTLIL6SigBitEN12_GLOBAL__N_114MuxcoverWorker8newmux_tENS3_8hash_opsIS6_EEE7entry_tEEEvT_SF_.exit, label %.lr.ph.i, !llvm.loop !10

_ZNSt12_Destroy_auxILb0EE9__destroyIPN5Yosys7hashlib4dictINS2_5RTLIL6SigBitEN12_GLOBAL__N_114MuxcoverWorker8newmux_tENS3_8hash_opsIS6_EEE7entry_tEEEvT_SF_.exit: ; preds = %_ZSt8_DestroyIN5Yosys7hashlib4dictINS0_5RTLIL6SigBitEN12_GLOBAL__N_114MuxcoverWorker8newmux_tENS1_8hash_opsIS4_EEE7entry_tEEvPT_.exit.i, %2
  ret void
}